; Function Attrs: nounwind uwtable
define hidden zeroext i1 @SDL_GetRectIntersection_REAL(ptr noundef readonly captures(address_is_null) %0, ptr noundef readonly captures(address_is_null) %1, ptr noundef writeonly captures(address_is_null) %2) local_unnamed_addr #0 {
  %.not = icmp eq ptr %0, null
  br i1 %.not, label %4, label %6

4:                                                ; preds = %3
  %5 = tail call zeroext i1 (ptr, ...) @SDL_SetError_REAL(ptr noundef nonnull @.str, ptr noundef nonnull @.str.6) #5
  br label %63

6:                                                ; preds = %3
  %.not58 = icmp eq ptr %1, null
  br i1 %.not58, label %7, label %9

7:                                                ; preds = %6
  %8 = tail call zeroext i1 (ptr, ...) @SDL_SetError_REAL(ptr noundef nonnull @.str, ptr noundef nonnull @.str.7) #5
  br label %63

9:                                                ; preds = %6
  %10 = load i32, ptr %0, align 4
  %11 = add i32 %10, -1073741823
  %or.cond.i = icmp ult i32 %11, -2147483646
  br i1 %or.cond.i, label %SDL_RectCanOverflow.exit.thread, label %12

12:                                               ; preds = %9
  %13 = getelementptr inbounds nuw i8, ptr %0, i64 4
  %14 = load i32, ptr %13, align 4
  %15 = add i32 %14, -1073741823
  %or.cond9.i = icmp ult i32 %15, -2147483646
  br i1 %or.cond9.i, label %SDL_RectCanOverflow.exit.thread, label %16

16:                                               ; preds = %12
  %17 = getelementptr inbounds nuw i8, ptr %0, i64 8
  %18 = load i32, ptr %17, align 4
  %19 = icmp sgt i32 %18, 1073741822
  br i1 %19, label %SDL_RectCanOverflow.exit.thread, label %SDL_RectCanOverflow.exit

SDL_RectCanOverflow.exit:                         ; preds = %16
  %20 = getelementptr inbounds nuw i8, ptr %0, i64 12
  %21 = load i32, ptr %20, align 4
  %22 = icmp sgt i32 %21, 1073741822
  br i1 %22, label %SDL_RectCanOverflow.exit.thread, label %23

23:                                               ; preds = %SDL_RectCanOverflow.exit
  %24 = load i32, ptr %1, align 4
  %25 = add i32 %24, -1073741823
  %or.cond.i62 = icmp ult i32 %25, -2147483646
  br i1 %or.cond.i62, label %SDL_RectCanOverflow.exit.thread, label %26

26:                                               ; preds = %23
  %27 = getelementptr inbounds nuw i8, ptr %1, i64 4
  %28 = load i32, ptr %27, align 4
  %29 = add i32 %28, -1073741823
  %or.cond9.i63 = icmp ult i32 %29, -2147483646
  br i1 %or.cond9.i63, label %SDL_RectCanOverflow.exit.thread, label %30

30:                                               ; preds = %26
  %31 = getelementptr inbounds nuw i8, ptr %1, i64 8
  %32 = load i32, ptr %31, align 4
  %33 = icmp sgt i32 %32, 1073741822
  br i1 %33, label %SDL_RectCanOverflow.exit.thread, label %SDL_RectCanOverflow.exit65

SDL_RectCanOverflow.exit65:                       ; preds = %30
  %34 = getelementptr inbounds nuw i8, ptr %1, i64 12
  %35 = load i32, ptr %34, align 4
  %36 = icmp sgt i32 %35, 1073741822
  br i1 %36, label %SDL_RectCanOverflow.exit.thread, label %38

SDL_RectCanOverflow.exit.thread:                  ; preds = %23, %26, %30, %9, %12, %16, %SDL_RectCanOverflow.exit65, %SDL_RectCanOverflow.exit
  %37 = tail call zeroext i1 (ptr, ...) @SDL_SetError_REAL(ptr noundef nonnull @.str.8) #5
  br label %63

38:                                               ; preds = %SDL_RectCanOverflow.exit65
  %.not59 = icmp eq ptr %2, null
  br i1 %.not59, label %39, label %41

39:                                               ; preds = %38
  %40 = tail call zeroext i1 (ptr, ...) @SDL_SetError_REAL(ptr noundef nonnull @.str, ptr noundef nonnull @.str.9) #5
  br label %63

41:                                               ; preds = %38
  %42 = icmp slt i32 %18, 1
  %43 = icmp slt i32 %21, 1
  %or.cond = or i1 %42, %43
  %44 = icmp slt i32 %32, 1
  %or.cond71 = or i1 %or.cond, %44
  %45 = icmp slt i32 %35, 1
  %or.cond72 = or i1 %or.cond71, %45
  br i1 %or.cond72, label %SDL_RectEmpty.exit61.thread, label %SDL_RectEmpty.exit

SDL_RectEmpty.exit61.thread:                      ; preds = %41
  %46 = getelementptr inbounds nuw i8, ptr %2, i64 8
  store i32 0, ptr %46, align 4
  %47 = getelementptr inbounds nuw i8, ptr %2, i64 12
  store i32 0, ptr %47, align 4
  br label %63

SDL_RectEmpty.exit:                               ; preds = %41
  %48 = add nsw i32 %18, %10
  %49 = add nsw i32 %32, %24
  %spec.select = tail call i32 @llvm.smax.i32(i32 %24, i32 %10)
  store i32 %spec.select, ptr %2, align 4
  %.0 = tail call i32 @llvm.smin.i32(i32 %49, i32 %48)
  %50 = sub nsw i32 %.0, %spec.select
  %51 = getelementptr inbounds nuw i8, ptr %2, i64 8
  store i32 %50, ptr %51, align 4
  %52 = load i32, ptr %13, align 4
  %53 = load i32, ptr %20, align 4
  %54 = add nsw i32 %53, %52
  %55 = load i32, ptr %27, align 4
  %56 = load i32, ptr %34, align 4
  %57 = add nsw i32 %56, %55
  %.145 = tail call i32 @llvm.smax.i32(i32 %55, i32 %52)
  %58 = getelementptr inbounds nuw i8, ptr %2, i64 4
  store i32 %.145, ptr %58, align 4
  %.1 = tail call i32 @llvm.smin.i32(i32 %57, i32 %54)
  %59 = sub nsw i32 %.1, %.145
  %60 = getelementptr inbounds nuw i8, ptr %2, i64 12
  store i32 %59, ptr %60, align 4
  %61 = icmp sgt i32 %50, 0
  %62 = icmp sgt i32 %59, 0
  %spec.select68.not = select i1 %61, i1 %62, i1 false
  br label %63

63:                                               ; preds = %SDL_RectEmpty.exit, %SDL_RectEmpty.exit61.thread, %39, %SDL_RectCanOverflow.exit.thread, %7, %4
  %.046 = phi i1 [ false, %SDL_RectCanOverflow.exit.thread ], [ false, %SDL_RectEmpty.exit61.thread ], [ %spec.select68.not, %SDL_RectEmpty.exit ], [ false, %39 ], [ false, %7 ], [ false, %4 ]
  ret i1 %.046
}